target datalayout = "e-m:e-p270:32:32-p271:32:32-p272:64:64-i64:64-i128:128-f80:128-n8:16:32:64-S128"
target triple = "x86_64-pc-linux-gnu"

%"class.Ipopt::SmartPtr.0" = type { ptr }
%"class.Ipopt::ReferencedObject" = type <{ ptr, i32, [4 x i8] }>

; Function Attrs: inlinehint mustprogress nounwind uwtable
define linkonce_odr noundef i32 @_ZNK5Ipopt16ReferencedObject14ReferenceCountEv(ptr noundef nonnull align 8 dereferenceable(12) %0) #6 comdat align 2 {
  %2 = alloca ptr, align 8
  store ptr %0, ptr %2, align 8, !tbaa !224
  %3 = load ptr, ptr %2, align 8
  %4 = getelementptr inbounds nuw %"class.Ipopt::ReferencedObject", ptr %3, i32 0, i32 1
  %5 = load i32, ptr %4, align 8, !tbaa !228
  ret i32 %5
}

; Function Attrs: inlinehint mustprogress nounwind uwtable
define linkonce_odr void @_ZNK5Ipopt16ReferencedObject10ReleaseRefEPKNS_10ReferencerE(ptr noundef nonnull align 8 dereferenceable(12) %0, ptr noundef %1) #6 comdat align 2 {
  %3 = alloca ptr, align 8
  %4 = alloca ptr, align 8
  store ptr %0, ptr %3, align 8, !tbaa !224
  store ptr %1, ptr %4, align 8, !tbaa !226
  %5 = load ptr, ptr %3, align 8
  %6 = getelementptr inbounds nuw %"class.Ipopt::ReferencedObject", ptr %5, i32 0, i32 1
  %7 = load i32, ptr %6, align 8, !tbaa !228
  %8 = add nsw i32 %7, -1
  store i32 %8, ptr %6, align 8, !tbaa !228
  ret void
}

; Function Attrs: noinline noreturn nounwind uwtable
define linkonce_odr hidden void @__clang_call_terminate(ptr noundef %0) #11 comdat {
  %2 = call ptr @__cxa_begin_catch(ptr %0) #15
  call void @_ZSt9terminatev() #17
  unreachable
}

; Function Attrs: mustprogress uwtable
define linkonce_odr void @_ZN5Ipopt8SmartPtrIKNS_6MatrixEE15ReleasePointer_Ev(ptr noundef nonnull align 8 dereferenceable(8) %0) #0 comdat align 2 {
  %2 = alloca ptr, align 8
  store ptr %0, ptr %2, align 8, !tbaa !61
  %3 = load ptr, ptr %2, align 8
  %4 = getelementptr inbounds nuw %"class.Ipopt::SmartPtr.0", ptr %3, i32 0, i32 0
  %5 = load ptr, ptr %4, align 8, !tbaa !63
  %6 = icmp ne ptr %5, null
  br i1 %6, label %7, label %25

7:                                                ; preds = %1
  %8 = getelementptr inbounds nuw %"class.Ipopt::SmartPtr.0", ptr %3, i32 0, i32 0
  %9 = load ptr, ptr %8, align 8, !tbaa !63
  call void @_ZNK5Ipopt16ReferencedObject10ReleaseRefEPKNS_10ReferencerE(ptr noundef nonnull align 8 dereferenceable(12) %9, ptr noundef %3)
  %10 = getelementptr inbounds nuw %"class.Ipopt::SmartPtr.0", ptr %3, i32 0, i32 0
  %11 = load ptr, ptr %10, align 8, !tbaa !63
  %12 = call noundef i32 @_ZNK5Ipopt16ReferencedObject14ReferenceCountEv(ptr noundef nonnull align 8 dereferenceable(12) %11)
  %13 = icmp eq i32 %12, 0
  br i1 %13, label %14, label %24

14:                                               ; preds = %7
  %15 = getelementptr inbounds nuw %"class.Ipopt::SmartPtr.0", ptr %3, i32 0, i32 0
  %16 = load ptr, ptr %15, align 8, !tbaa !63
  %17 = icmp eq ptr %16, null
  br i1 %17, label %22, label %18

18:                                               ; preds = %14
  %19 = load ptr, ptr %16, align 8, !tbaa !88
  %20 = getelementptr inbounds ptr, ptr %19, i64 1
  %21 = load ptr, ptr %20, align 8
  call void %21(ptr noundef nonnull align 8 dereferenceable(69) %16) #15
  br label %22

22:                                               ; preds = %18, %14
  %23 = getelementptr inbounds nuw %"class.Ipopt::SmartPtr.0", ptr %3, i32 0, i32 0
  store ptr null, ptr %23, align 8, !tbaa !63
  br label %24

24:                                               ; preds = %22, %7
  br label %25

25:                                               ; preds = %24, %1
  ret void
}

; Function Attrs: mustprogress nounwind uwtable
define linkonce_odr void @_ZN5Ipopt8SmartPtrIKNS_6MatrixEED2Ev(ptr noundef nonnull align 8 dereferenceable(8) %0) unnamed_addr #4 comdat align 2 personality ptr @__gxx_personality_v0 {
  %2 = alloca ptr, align 8
  store ptr %0, ptr %2, align 8, !tbaa !61
  %3 = load ptr, ptr %2, align 8
  invoke void @_ZN5Ipopt8SmartPtrIKNS_6MatrixEE15ReleasePointer_Ev(ptr noundef nonnull align 8 dereferenceable(8) %3)
          to label %4 unwind label %5

4:                                                ; preds = %1
  ret void

5:                                                ; preds = %1
  %6 = landingpad { ptr, i32 }
          catch ptr null
  %7 = extractvalue { ptr, i32 } %6, 0
  call void @__clang_call_terminate(ptr %7) #17
  unreachable
}

; Function Attrs: mustprogress nounwind uwtable
define linkonce_odr noundef nonnull align 8 dereferenceable(69) ptr @_ZNK5Ipopt8SmartPtrIKNS_6MatrixEEdeEv(ptr noundef nonnull align 8 dereferenceable(8) %0) #4 comdat align 2 {
  %2 = alloca ptr, align 8
  store ptr %0, ptr %2, align 8, !tbaa !61
  %3 = load ptr, ptr %2, align 8
  %4 = getelementptr inbounds nuw %"class.Ipopt::SmartPtr.0", ptr %3, i32 0, i32 0
  %5 = load ptr, ptr %4, align 8, !tbaa !63
  ret ptr %5
}

; Function Attrs: mustprogress nounwind uwtable
define linkonce_odr void @_ZN5Ipopt8SmartPtrIKNS_6MatrixEEC2Ev(ptr noundef nonnull align 8 dereferenceable(8) %0) unnamed_addr #4 comdat align 2 {
  %2 = alloca ptr, align 8
  store ptr %0, ptr %2, align 8, !tbaa !61
  %3 = load ptr, ptr %2, align 8
  %4 = getelementptr inbounds nuw %"class.Ipopt::SmartPtr.0", ptr %3, i32 0, i32 0
  store ptr null, ptr %4, align 8, !tbaa !63
  ret void
}

; Function Attrs: mustprogress uwtable
define void @_ZN5Ipopt13TripletHelper11FillValues_EiRKNS_9SumMatrixEPd(i32 noundef %0, ptr noundef nonnull align 8 dereferenceable(128) %1, ptr noundef %2) #0 align 2 personality ptr @__gxx_personality_v0 {
  %4 = alloca i32, align 4
  %5 = alloca ptr, align 8
  %6 = alloca ptr, align 8
  %7 = alloca i32, align 4
  %8 = alloca double, align 8
  %9 = alloca %"class.Ipopt::SmartPtr.0", align 8
  %10 = alloca ptr, align 8
  %11 = alloca i32, align 4
  %12 = alloca i32, align 4
  store i32 %0, ptr %4, align 4, !tbaa !72
  store ptr %1, ptr %5, align 8, !tbaa !22
  store ptr %2, ptr %6, align 8, !tbaa !115
  call void @llvm.lifetime.start.p0(i64 4, ptr %7) #15
  store i32 0, ptr %7, align 4, !tbaa !72
  br label %13

13:                                               ; preds = %40, %3
  %14 = load i32, ptr %7, align 4, !tbaa !72
  %15 = load ptr, ptr %5, align 8, !tbaa !22
  %16 = call noundef i32 @_ZNK5Ipopt9SumMatrix6NTermsEv(ptr noundef nonnull align 8 dereferenceable(128) %15)
  %17 = icmp slt i32 %14, %16
  br i1 %17, label %19, label %18

18:                                               ; preds = %13
  call void @llvm.lifetime.end.p0(i64 4, ptr %7) #15
  br label %52

19:                                               ; preds = %13
  call void @llvm.lifetime.start.p0(i64 8, ptr %8) #15
  store double 0.000000e+00, ptr %8, align 8, !tbaa !99
  call void @llvm.lifetime.start.p0(i64 8, ptr %9) #15
  call void @_ZN5Ipopt8SmartPtrIKNS_6MatrixEEC2Ev(ptr noundef nonnull align 8 dereferenceable(8) %9)
  %20 = load ptr, ptr %5, align 8, !tbaa !22
  %21 = load i32, ptr %7, align 4, !tbaa !72
  invoke void @_ZNK5Ipopt9SumMatrix7GetTermEiRdRNS_8SmartPtrIKNS_6MatrixEEE(ptr noundef nonnull align 8 dereferenceable(128) %20, i32 noundef %21, ptr noundef nonnull align 8 dereferenceable(8) %8, ptr noundef nonnull align 8 dereferenceable(8) %9)
          to label %22 unwind label %43

22:                                               ; preds = %19
  call void @llvm.lifetime.start.p0(i64 4, ptr %12) #15
  %23 = invoke noundef nonnull align 8 dereferenceable(69) ptr @_ZNK5Ipopt8SmartPtrIKNS_6MatrixEEdeEv(ptr noundef nonnull align 8 dereferenceable(8) %9)
          to label %24 unwind label %47

24:                                               ; preds = %22
  %25 = invoke noundef i32 @_ZN5Ipopt13TripletHelper16GetNumberEntriesERKNS_6MatrixE(ptr noundef nonnull align 8 dereferenceable(69) %23)
          to label %26 unwind label %47

26:                                               ; preds = %24
  store i32 %25, ptr %12, align 4, !tbaa !72
  %27 = load i32, ptr %12, align 4, !tbaa !72
  %28 = invoke noundef nonnull align 8 dereferenceable(69) ptr @_ZNK5Ipopt8SmartPtrIKNS_6MatrixEEdeEv(ptr noundef nonnull align 8 dereferenceable(8) %9)
          to label %29 unwind label %47

29:                                               ; preds = %26
  %30 = load ptr, ptr %6, align 8, !tbaa !115
  invoke void @_ZN5Ipopt13TripletHelper10FillValuesEiRKNS_6MatrixEPd(i32 noundef %27, ptr noundef nonnull align 8 dereferenceable(69) %28, ptr noundef %30)
          to label %31 unwind label %47

31:                                               ; preds = %29
  %32 = load i32, ptr %12, align 4, !tbaa !72
  %33 = load double, ptr %8, align 8, !tbaa !99
  %34 = load ptr, ptr %6, align 8, !tbaa !115
  invoke void @_ZN5Ipopt10IpBlasScalEidPdi(i32 noundef %32, double noundef %33, ptr noundef %34, i32 noundef 1)
          to label %35 unwind label %47

35:                                               ; preds = %31
  %36 = load i32, ptr %12, align 4, !tbaa !72
  %37 = load ptr, ptr %6, align 8, !tbaa !115
  %38 = sext i32 %36 to i64
  %39 = getelementptr inbounds double, ptr %37, i64 %38
  store ptr %39, ptr %6, align 8, !tbaa !115
  call void @llvm.lifetime.end.p0(i64 4, ptr %12) #15
  call void @_ZN5Ipopt8SmartPtrIKNS_6MatrixEED2Ev(ptr noundef nonnull align 8 dereferenceable(8) %9) #15
  call void @llvm.lifetime.end.p0(i64 8, ptr %9) #15
  call void @llvm.lifetime.end.p0(i64 8, ptr %8) #15
  br label %40

40:                                               ; preds = %35
  %41 = load i32, ptr %7, align 4, !tbaa !72
  %42 = add nsw i32 %41, 1
  store i32 %42, ptr %7, align 4, !tbaa !72
  br label %13, !llvm.loop !122

43:                                               ; preds = %19
  %44 = landingpad { ptr, i32 }
          cleanup
  %45 = extractvalue { ptr, i32 } %44, 0
  store ptr %45, ptr %10, align 8
  %46 = extractvalue { ptr, i32 } %44, 1
  store i32 %46, ptr %11, align 4
  br label %51

47:                                               ; preds = %31, %29, %26, %24, %22
  %48 = landingpad { ptr, i32 }
          cleanup
  %49 = extractvalue { ptr, i32 } %48, 0
  store ptr %49, ptr %10, align 8
  %50 = extractvalue { ptr, i32 } %48, 1
  store i32 %50, ptr %11, align 4
  call void @llvm.lifetime.end.p0(i64 4, ptr %12) #15
  br label %51

51:                                               ; preds = %47, %43
  call void @_ZN5Ipopt8SmartPtrIKNS_6MatrixEED2Ev(ptr noundef nonnull align 8 dereferenceable(8) %9) #15
  call void @llvm.lifetime.end.p0(i64 8, ptr %9) #15
  call void @llvm.lifetime.end.p0(i64 8, ptr %8) #15
  call void @llvm.lifetime.end.p0(i64 4, ptr %7) #15
  br label %53

52:                                               ; preds = %18
  ret void

53:                                               ; preds = %51
  %54 = load ptr, ptr %10, align 8
  %55 = load i32, ptr %11, align 4
  %56 = insertvalue { ptr, i32 } poison, ptr %54, 0
  %57 = insertvalue { ptr, i32 } %56, i32 %55, 1
  resume { ptr, i32 } %57
}