; Function Attrs: mustprogress uwtable
define void @_ZN5Ipopt13TripletHelper11FillValues_EiRKNS_9SumMatrixEPd(i32 %0, ptr noundef nonnull align 8 dereferenceable(128) %1, ptr noundef %2) local_unnamed_addr #0 align 2 personality ptr @__gxx_personality_v0 {
  %4 = alloca double, align 8
  %5 = alloca %"class.Ipopt::SmartPtr.0", align 8
  %6 = tail call noundef i32 @_ZNK5Ipopt9SumMatrix6NTermsEv(ptr noundef nonnull align 8 dereferenceable(128) %1)
  %7 = icmp sgt i32 %6, 0
  br i1 %7, label %.lr.ph, label %._crit_edge

._crit_edge:                                      ; preds = %_ZN5Ipopt8SmartPtrIKNS_6MatrixEED2Ev.exit, %3
  ret void

.lr.ph:                                           ; preds = %3, %_ZN5Ipopt8SmartPtrIKNS_6MatrixEED2Ev.exit
  %.019 = phi ptr [ %17, %_ZN5Ipopt8SmartPtrIKNS_6MatrixEED2Ev.exit ], [ %2, %3 ]
  %.01418 = phi i32 [ %28, %_ZN5Ipopt8SmartPtrIKNS_6MatrixEED2Ev.exit ], [ 0, %3 ]
  call void @llvm.lifetime.start.p0(i64 8, ptr nonnull %4) #17
  store double 0.000000e+00, ptr %4, align 8, !tbaa !168
  call void @llvm.lifetime.start.p0(i64 8, ptr nonnull %5) #17
  store ptr null, ptr %5, align 8, !tbaa !36
  invoke void @_ZNK5Ipopt9SumMatrix7GetTermEiRdRNS_8SmartPtrIKNS_6MatrixEEE(ptr noundef nonnull align 8 dereferenceable(128) %1, i32 noundef %.01418, ptr noundef nonnull align 8 dereferenceable(8) %4, ptr noundef nonnull align 8 dereferenceable(8) %5)
          to label %8 unwind label %31

8:                                                ; preds = %.lr.ph
  %9 = load ptr, ptr %5, align 8, !tbaa !36
  %10 = invoke noundef i32 @_ZN5Ipopt13TripletHelper16GetNumberEntriesERKNS_6MatrixE(ptr noundef nonnull align 8 dereferenceable(69) %9)
          to label %11 unwind label %33

11:                                               ; preds = %8
  %12 = load ptr, ptr %5, align 8, !tbaa !36
  invoke void @_ZN5Ipopt13TripletHelper10FillValuesEiRKNS_6MatrixEPd(i32 noundef %10, ptr noundef nonnull align 8 dereferenceable(69) %12, ptr noundef %.019)
          to label %13 unwind label %33

13:                                               ; preds = %11
  %14 = load double, ptr %4, align 8, !tbaa !168
  invoke void @_ZN5Ipopt10IpBlasScalEidPdi(i32 noundef %10, double noundef %14, ptr noundef %.019, i32 noundef 1)
          to label %15 unwind label %33

15:                                               ; preds = %13
  %16 = sext i32 %10 to i64
  %17 = getelementptr inbounds double, ptr %.019, i64 %16
  %18 = load ptr, ptr %5, align 8, !tbaa !36
  %.not.i.i = icmp eq ptr %18, null
  br i1 %.not.i.i, label %_ZN5Ipopt8SmartPtrIKNS_6MatrixEED2Ev.exit, label %19

19:                                               ; preds = %15
  %20 = getelementptr inbounds nuw i8, ptr %18, i64 8
  %21 = load i32, ptr %20, align 8, !tbaa !42
  %22 = add nsw i32 %21, -1
  store i32 %22, ptr %20, align 8, !tbaa !42
  %23 = icmp eq i32 %22, 0
  br i1 %23, label %24, label %_ZN5Ipopt8SmartPtrIKNS_6MatrixEED2Ev.exit

24:                                               ; preds = %19
  %25 = load ptr, ptr %18, align 8, !tbaa !43
  %26 = getelementptr inbounds nuw i8, ptr %25, i64 8
  %27 = load ptr, ptr %26, align 8
  call void %27(ptr noundef nonnull align 8 dereferenceable(69) %18) #17
  br label %_ZN5Ipopt8SmartPtrIKNS_6MatrixEED2Ev.exit

_ZN5Ipopt8SmartPtrIKNS_6MatrixEED2Ev.exit:        ; preds = %15, %19, %24
  call void @llvm.lifetime.end.p0(i64 8, ptr nonnull %5) #17
  call void @llvm.lifetime.end.p0(i64 8, ptr nonnull %4) #17
  %28 = add nuw nsw i32 %.01418, 1
  %29 = call noundef i32 @_ZNK5Ipopt9SumMatrix6NTermsEv(ptr noundef nonnull align 8 dereferenceable(128) %1)
  %30 = icmp slt i32 %28, %29
  br i1 %30, label %.lr.ph, label %._crit_edge, !llvm.loop !289

31:                                               ; preds = %.lr.ph
  %32 = landingpad { ptr, i32 }
          cleanup
  br label %35

33:                                               ; preds = %13, %11, %8
  %34 = landingpad { ptr, i32 }
          cleanup
  br label %35

35:                                               ; preds = %33, %31
  %.pn = phi { ptr, i32 } [ %34, %33 ], [ %32, %31 ]
  %36 = load ptr, ptr %5, align 8, !tbaa !36
  %.not.i.i16 = icmp eq ptr %36, null
  br i1 %.not.i.i16, label %_ZN5Ipopt8SmartPtrIKNS_6MatrixEED2Ev.exit17, label %37

37:                                               ; preds = %35
  %38 = getelementptr inbounds nuw i8, ptr %36, i64 8
  %39 = load i32, ptr %38, align 8, !tbaa !42
  %40 = add nsw i32 %39, -1
  store i32 %40, ptr %38, align 8, !tbaa !42
  %41 = icmp eq i32 %40, 0
  br i1 %41, label %42, label %_ZN5Ipopt8SmartPtrIKNS_6MatrixEED2Ev.exit17

42:                                               ; preds = %37
  %43 = load ptr, ptr %36, align 8, !tbaa !43
  %44 = getelementptr inbounds nuw i8, ptr %43, i64 8
  %45 = load ptr, ptr %44, align 8
  call void %45(ptr noundef nonnull align 8 dereferenceable(69) %36) #17
  br label %_ZN5Ipopt8SmartPtrIKNS_6MatrixEED2Ev.exit17

_ZN5Ipopt8SmartPtrIKNS_6MatrixEED2Ev.exit17:      ; preds = %35, %37, %42
  call void @llvm.lifetime.end.p0(i64 8, ptr nonnull %5) #17
  call void @llvm.lifetime.end.p0(i64 8, ptr nonnull %4) #17
  resume { ptr, i32 } %.pn
}